; Function Attrs: nounwind uwtable
define ptr @l_Lean_PrettyPrinter_Delaborator_SubExpr_withBindingBody_x27___at_Lean_PrettyPrinter_Delaborator_SubExpr_withBindingBody___spec__1___rarg___lambda__1(ptr noundef %0, ptr noundef %1, ptr noundef %2, ptr noundef %3, ptr noundef %4, ptr noundef %5, ptr noundef %6, ptr noundef %7) #0 {
  %9 = tail call zeroext i8 @l_Lean_Expr_binderInfo(ptr noundef %7) #5
  %10 = tail call ptr @l_Lean_Expr_bindingDomain_x21(ptr noundef %7) #5
  tail call void @lean_inc_heartbeat() #5
  %11 = tail call noalias ptr @mi_malloc_small(i64 noundef 64) #5
  %12 = icmp eq ptr %11, null
  br i1 %12, label %13, label %lean_alloc_closure.exit

13:                                               ; preds = %8
  tail call void @lean_internal_panic_out_of_memory() #6
  unreachable

lean_alloc_closure.exit:                          ; preds = %8
  %14 = getelementptr inbounds nuw i8, ptr %11, i64 4
  store i32 1, ptr %11, align 4, !tbaa !9
  store i32 -184549312, ptr %14, align 4
  %15 = getelementptr inbounds nuw i8, ptr %11, i64 8
  store ptr @l_Lean_PrettyPrinter_Delaborator_SubExpr_withBindingBody_x27___rarg___lambda__2, ptr %15, align 8, !tbaa !5
  %16 = getelementptr inbounds nuw i8, ptr %11, i64 16
  store i16 6, ptr %16, align 8, !tbaa !17
  %17 = getelementptr inbounds nuw i8, ptr %11, i64 18
  store i16 5, ptr %17, align 2, !tbaa !17
  %18 = getelementptr inbounds nuw i8, ptr %11, i64 24
  store ptr %0, ptr %18, align 8, !tbaa !5
  %19 = getelementptr inbounds nuw i8, ptr %11, i64 32
  store ptr %7, ptr %19, align 8, !tbaa !5
  %20 = getelementptr inbounds nuw i8, ptr %11, i64 40
  store ptr %1, ptr %20, align 8, !tbaa !5
  %21 = getelementptr inbounds nuw i8, ptr %11, i64 48
  store ptr %2, ptr %21, align 8, !tbaa !5
  %22 = getelementptr inbounds nuw i8, ptr %11, i64 56
  store ptr %3, ptr %22, align 8, !tbaa !5
  %23 = tail call ptr @l_Lean_Meta_withLocalDecl___at_Lean_PrettyPrinter_Delaborator_SubExpr_withBindingBody___spec__2___rarg(ptr noundef %4, ptr noundef %5, ptr nonnull poison, ptr noundef %6, i8 noundef zeroext %9, ptr noundef %10, ptr noundef nonnull %11, i8 noundef zeroext 0)
  ret ptr %23
}